target datalayout = "e-m:e-p270:32:32-p271:32:32-p272:64:64-i64:64-i128:128-f80:128-n8:16:32:64-S128"
target triple = "x86_64-pc-linux-gnu"

%"class.cvc5::internal::Integer" = type { %class.__gmp_expr }
%class.__gmp_expr = type { [1 x %struct.__mpz_struct] }
%struct.__mpz_struct = type { i32, i32, ptr }

; Function Attrs: inlinehint mustprogress nounwind willreturn memory(read) uwtable
define available_externally i64 @__gmpz_get_ui(ptr noundef %0) #6 {
  %2 = alloca ptr, align 8
  %3 = alloca ptr, align 8
  %4 = alloca i64, align 8
  %5 = alloca i64, align 8
  store ptr %0, ptr %2, align 8, !tbaa !30
  call void @llvm.lifetime.start.p0(i64 8, ptr %3) #16
  %6 = load ptr, ptr %2, align 8, !tbaa !30
  %7 = getelementptr inbounds nuw %struct.__mpz_struct, ptr %6, i32 0, i32 2
  %8 = load ptr, ptr %7, align 8, !tbaa !31
  store ptr %8, ptr %3, align 8, !tbaa !34
  call void @llvm.lifetime.start.p0(i64 8, ptr %4) #16
  %9 = load ptr, ptr %2, align 8, !tbaa !30
  %10 = getelementptr inbounds nuw %struct.__mpz_struct, ptr %9, i32 0, i32 1
  %11 = load i32, ptr %10, align 4, !tbaa !35
  %12 = sext i32 %11 to i64
  store i64 %12, ptr %4, align 8, !tbaa !36
  call void @llvm.lifetime.start.p0(i64 8, ptr %5) #16
  %13 = load ptr, ptr %3, align 8, !tbaa !34
  %14 = getelementptr inbounds i64, ptr %13, i64 0
  %15 = load i64, ptr %14, align 8, !tbaa !36
  store i64 %15, ptr %5, align 8, !tbaa !36
  %16 = load i64, ptr %4, align 8, !tbaa !36
  %17 = icmp ne i64 %16, 0
  br i1 %17, label %18, label %20

18:                                               ; preds = %1
  %19 = load i64, ptr %5, align 8, !tbaa !36
  br label %21

20:                                               ; preds = %1
  br label %21

21:                                               ; preds = %20, %18
  %22 = phi i64 [ %19, %18 ], [ 0, %20 ]
  call void @llvm.lifetime.end.p0(i64 8, ptr %5) #16
  call void @llvm.lifetime.end.p0(i64 8, ptr %4) #16
  call void @llvm.lifetime.end.p0(i64 8, ptr %3) #16
  ret i64 %22
}

; Function Attrs: mustprogress nounwind uwtable
define linkonce_odr hidden noundef i64 @_ZNK10__gmp_exprIA1_12__mpz_structS1_E6get_uiEv(ptr noundef nonnull align 8 dereferenceable(16) %0) #3 comdat align 2 {
  %2 = alloca ptr, align 8
  store ptr %0, ptr %2, align 8, !tbaa !12
  %3 = load ptr, ptr %2, align 8
  %4 = getelementptr inbounds nuw %class.__gmp_expr, ptr %3, i32 0, i32 0
  %5 = getelementptr inbounds [1 x %struct.__mpz_struct], ptr %4, i64 0, i64 0
  %6 = call i64 @__gmpz_get_ui(ptr noundef %5) #19
  ret i64 %6
}

; Function Attrs: mustprogress uwtable
define hidden noundef i32 @_ZNK4cvc58internal7Integer14getUnsignedIntEv(ptr noundef nonnull align 8 dereferenceable(16) %0) #0 align 2 {
  %2 = alloca ptr, align 8
  store ptr %0, ptr %2, align 8, !tbaa !3
  %3 = load ptr, ptr %2, align 8
  %4 = getelementptr inbounds nuw %"class.cvc5::internal::Integer", ptr %3, i32 0, i32 0
  %5 = call noundef i64 @_ZNK10__gmp_exprIA1_12__mpz_structS1_E6get_uiEv(ptr noundef nonnull align 8 dereferenceable(16) %4)
  %6 = trunc i64 %5 to i32
  ret i32 %6
}